; Function Attrs: nounwind uwtable
define ptr @l_Lean_Omega_Constraint_combine___lambda__1(ptr noundef %0, ptr noundef %1) local_unnamed_addr #1 {
  %3 = ptrtoint ptr %0 to i64
  %4 = and i64 %3, 1
  %.not.i.i = icmp eq i64 %4, 0
  br i1 %.not.i.i, label %lean_int_dec_le.exit, label %5, !prof !4

5:                                                ; preds = %2
  %6 = ptrtoint ptr %1 to i64
  %7 = and i64 %6, 1
  %.not7.i.i = icmp eq i64 %7, 0
  br i1 %.not7.i.i, label %lean_int_dec_le.exit.thread16, label %lean_int_dec_le.exit.thread, !prof !4

lean_int_dec_le.exit:                             ; preds = %2
  %8 = tail call zeroext i1 @lean_int_big_le(ptr noundef %0, ptr noundef %1) #4
  br i1 %8, label %20, label %14

lean_int_dec_le.exit.thread16:                    ; preds = %5
  %9 = tail call zeroext i1 @lean_int_big_le(ptr noundef %0, ptr noundef %1) #4
  br i1 %9, label %20, label %lean_inc.exit7

lean_int_dec_le.exit.thread:                      ; preds = %5
  %10 = lshr i64 %3, 1
  %11 = trunc i64 %10 to i32
  %12 = lshr i64 %6, 1
  %13 = trunc i64 %12 to i32
  %.not = icmp sgt i32 %11, %13
  %spec.select = select i1 %.not, ptr %0, ptr %1
  br label %lean_inc.exit7

14:                                               ; preds = %lean_int_dec_le.exit
  %.val.i = load i32, ptr %0, align 4, !tbaa !6
  %15 = icmp sgt i32 %.val.i, 0
  br i1 %15, label %16, label %18, !prof !5

16:                                               ; preds = %14
  %17 = add nuw i32 %.val.i, 1
  store i32 %17, ptr %0, align 4, !tbaa !6
  br label %lean_inc.exit7

18:                                               ; preds = %14
  %.not.i = icmp eq i32 %.val.i, 0
  br i1 %.not.i, label %lean_inc.exit7, label %19

19:                                               ; preds = %18
  tail call void @lean_inc_ref_cold(ptr noundef nonnull %0) #4
  br label %lean_inc.exit7

20:                                               ; preds = %lean_int_dec_le.exit, %lean_int_dec_le.exit.thread16
  %.pre = ptrtoint ptr %1 to i64
  %.pre14 = and i64 %.pre, 1
  %21 = icmp eq i64 %.pre14, 0
  br i1 %21, label %22, label %lean_inc.exit7

22:                                               ; preds = %20
  %.val.i8 = load i32, ptr %1, align 4, !tbaa !6
  %23 = icmp sgt i32 %.val.i8, 0
  br i1 %23, label %24, label %26, !prof !5

24:                                               ; preds = %22
  %25 = add nuw i32 %.val.i8, 1
  store i32 %25, ptr %1, align 4, !tbaa !6
  br label %lean_inc.exit7

26:                                               ; preds = %22
  %.not.i9 = icmp eq i32 %.val.i8, 0
  br i1 %.not.i9, label %lean_inc.exit7, label %27

27:                                               ; preds = %26
  tail call void @lean_inc_ref_cold(ptr noundef nonnull %1) #4
  br label %lean_inc.exit7

lean_inc.exit7:                                   ; preds = %lean_int_dec_le.exit.thread, %lean_int_dec_le.exit.thread16, %20, %24, %26, %27, %16, %18, %19
  %.0 = phi ptr [ %0, %19 ], [ %0, %18 ], [ %0, %16 ], [ %1, %27 ], [ %1, %26 ], [ %1, %24 ], [ %1, %20 ], [ %0, %lean_int_dec_le.exit.thread16 ], [ %spec.select, %lean_int_dec_le.exit.thread ]
  ret ptr %.0
}